Certificate:
    Data:
        Version: 3 (0x2)
        Serial Number: 13966747595840994251 (0xc1d3daf07da4bbcb)
    Signature Algorithm: sha256WithRSAEncryption
        Issuer: C=ES, ST=Spain, L=Santander, O=SMG-CA
        Validity
            Not Before: Nov  9 11:41:22 2018 GMT
            Not After : Nov  6 11:41:22 2028 GMT
        Subject: CN=esgf-f2f-test2
        Subject Public Key Info:
            Public Key Algorithm: rsaEncryption
                Public-Key: (2048 bit)
                Modulus:
                    00:e1:09:62:52:07:04:37:06:29:b7:f5:88:1b:01:
                    e7:89:4c:b5:79:c6:a7:9c:13:f2:2e:6f:b0:c4:3b:
                    66:9c:4d:45:1a:b9:3d:95:d8:6f:23:bb:e0:75:8a:
                    1a:54:4c:fb:ce:3a:79:cb:80:77:a1:37:56:2c:93:
                    93:17:a5:23:93:b0:1c:ef:bd:2a:ea:63:4e:84:c5:
                    e5:7e:9f:73:e8:f6:d8:16:a1:b8:83:4d:7a:1c:fb:
                    b6:4b:32:a5:4f:49:47:de:6c:94:af:e1:a7:53:c8:
                    60:e3:9d:65:30:cd:ea:7e:53:36:e9:e1:1a:87:75:
                    b5:32:00:e2:88:58:92:1f:d3:c5:6f:2d:a2:ca:3c:
                    c5:82:a9:80:37:26:c3:34:57:13:e3:6d:2b:f1:04:
                    6b:f5:7f:c5:86:5d:7e:63:18:6b:af:25:f1:4e:2b:
                    e2:e7:99:dc:7f:67:43:9f:99:01:ac:46:b8:3f:cb:
                    ef:c0:66:95:8b:2a:f1:f6:cc:de:ca:54:4a:3f:71:
                    0f:7e:a9:8e:2d:5d:7f:6d:94:69:22:c6:45:d0:cc:
                    36:98:c8:d4:e7:27:f6:ec:d7:d0:f5:f1:09:df:fa:
                    ce:93:df:e8:d3:ac:fa:5c:c9:6d:b5:15:00:fe:c2:
                    5e:f2:8d:c2:db:2c:15:2a:39:c6:b5:14:39:03:98:
                    a6:79
                Exponent: 65537 (0x10001)
        X509v3 extensions:
            X509v3 Subject Alternative Name: 
                IP Address:127.0.0.1, IP Address:172.28.128.3, IP Address:172.28.128.4, IP Address:172.28.128.5, IP Address:172.28.128.13, DNS:localhost, DNS:esgf
    Signature Algorithm: sha256WithRSAEncryption
         05:08:25:86:bc:a6:a3:77:f7:14:59:4d:05:b5:cf:e5:ed:98:
         08:cb:cd:72:04:32:29:ff:06:84:63:5e:83:6c:be:5a:42:bf:
         06:46:93:51:40:3f:55:28:72:79:64:3f:1a:3b:d9:93:b9:8e:
         ab:f0:c5:e0:63:76:64:d2:ba:86:9f:2a:18:91:3b:2f:15:6a:
         fc:c1:7e:6a:65:57:a5:ab:21:5e:86:a1:06:20:de:72:79:4f:
         f5:03:ed:b0:7e:47:d8:4a:01:30:ab:35:e6:e7:64:08:e0:78:
         ed:df:b3:f9:54:94:28:3a:c0:a0:27:35:6f:17:db:c0:5d:86:
         6a:1f:11:32:e5:83:4d:b0:79:f6:9a:9c:3f:aa:3d:ab:4a:6c:
         04:ae:ca:e0:4a:fa:59:eb:06:92:6f:2f:f9:c8:3e:5e:3d:f4:
         91:94:bc:fd:53:98:52:56:1e:9a:7e:ea:2f:40:9e:b2:2d:7f:
         2e:6e:eb:6d:04:44:69:55:bd:12:93:a5:a6:1e:00:76:3b:63:
         93:6f:07:18:49:17:44:a8:28:b3:dc:3e:53:28:3a:69:07:b7:
         ff:8f:92:17:7a:03:47:da:8d:ff:e9:be:71:6a:c4:0f:35:06:
         c3:a5:a8:5b:49:16:7e:7f:cb:3c:60:8b:fd:3c:6a:a6:3d:09:
         ff:56:55:a5:39:a7:f0:01:ac:3e:b0:c1:fe:13:03:64:c4:71:
         30:f2:cf:47:eb:f9:a4:db:61:e9:20:58:00:89:83:4d:87:f6:
         d9:bd:91:75:76:18:68:aa:95:67:32:33:cf:73:eb:a6:bc:58:
         b2:ad:09:80:b4:17:a4:8c:bc:5c:3e:a3:ea:c9:f6:c2:0a:12:
         b7:20:ce:80:8e:af:ae:a9:af:bc:bf:11:cb:85:76:01:0e:70:
         99:b9:1d:14:8d:9f:17:ba:9e:60:bc:58:64:b5:5a:d3:de:31:
         f0:95:08:80:c5:10:80:4f:bb:26:08:a0:cd:69:a4:a9:11:8e:
         58:63:64:34:4b:c7:fa:e1:fc:e4:b7:04:b8:55:fc:e6:49:4d:
         bf:ea:37:00:28:66:b1:c8:bf:53:c4:9f:7c:85:ae:eb:f8:ec:
         e7:0d:61:00:20:b2:ca:04:57:33:74:a1:38:39:11:d5:48:9a:
         1e:08:2f:ba:62:e0:31:ab:db:2d:99:9a:e4:74:e8:c3:ce:f7:
         96:be:f3:e7:ef:e6:e4:94:b3:d3:4f:7f:7f:5f:61:35:b3:1e:
         02:99:7e:08:73:77:75:6d:52:c7:76:c2:c7:70:0f:61:ad:8a:
         da:3b:5f:d7:64:92:42:36:c2:39:85:24:1e:d5:7b:dd:99:8b:
         e2:ad:13:05:16:73:b7:03
-----BEGIN CERTIFICATE-----
MIIEGjCCAgKgAwIBAgIJAMHT2vB9pLvLMA0GCSqGSIb3DQEBCwUAMEIxCzAJBgNV
BAYTAkVTMQ4wDAYDVQQIDAVTcGFpbjESMBAGA1UEBwwJU2FudGFuZGVyMQ8wDQYD
VQQKDAZTTUctQ0EwHhcNMTgxMTA5MTE0MTIyWhcNMjgxMTA2MTE0MTIyWjAZMRcw
FQYDVQQDEw5lc2dmLWYyZi10ZXN0MjCCASIwDQYJKoZIhvcNAQEBBQADggEPADCC
AQoCggEBAOEJYlIHBDcGKbf1iBsB54lMtXnGp5wT8i5vsMQ7ZpxNRRq5PZXYbyO7
4HWKGlRM+846ecuAd6E3ViyTkxelI5OwHO+9KupjToTF5X6fc+j22BahuINNehz7
tksypU9JR95slK/hp1PIYOOdZTDN6n5TNunhGod1tTIA4ohYkh/TxW8toso8xYKp
gDcmwzRXE+NtK/EEa/V/xYZdfmMYa68l8U4r4ueZ3H9nQ5+ZAaxGuD/L78BmlYsq
8fbM3spUSj9xD36pji1df22UaSLGRdDMNpjI1Ocn9uzX0PXxCd/6zpPf6NOs+lzJ
bbUVAP7CXvKNwtssFSo5xrUUOQOYpnkCAwEAAaM8MDowOAYDVR0RBDEwL4cEfwAA
AYcErByAA4cErByABIcErByABYcErByADYIJbG9jYWxob3N0ggRlc2dmMA0GCSqG
SIb3DQEBCwUAA4ICAQAFCCWGvKajd/cUWU0Ftc/l7ZgIy81yBDIp/waEY16DbL5a
Qr8GRpNRQD9VKHJ5ZD8aO9mTuY6r8MXgY3Zk0rqGnyoYkTsvFWr8wX5qZVelqyFe
hqEGIN5yeU/1A+2wfkfYSgEwqzXm52QI4Hjt37P5VJQoOsCgJzVvF9vAXYZqHxEy
5YNNsHn2mpw/qj2rSmwErsrgSvpZ6waSby/5yD5ePfSRlLz9U5hSVh6afuovQJ6y
LX8ubuttBERpVb0Sk6WmHgB2O2OTbwcYSRdEqCiz3D5TKDppB7f/j5IXegNH2o3/
6b5xasQPNQbDpahbSRZ+f8s8YIv9PGqmPQn/VlWlOafwAaw+sMH+EwNkxHEw8s9H
6/mk22HpIFgAiYNNh/bZvZF1dhhoqpVnMjPPc+umvFiyrQmAtBekjLxcPqPqyfbC
ChK3IM6Ajq+uqa+8vxHLhXYBDnCZuR0UjZ8Xup5gvFhktVrT3jHwlQiAxRCAT7sm
CKDNaaSpEY5YY2Q0S8f64fzktwS4VfzmSU2/6jcAKGaxyL9TxJ98ha7r+OznDWEA
ILLKBFczdKE4ORHVSJoeCC+6YuAxq9stmZrkdOjDzveWvvPn7+bklLPTT39/X2E1
sx4CmX4Ic3d1bVLHdsLHcA9hrYraO1/XZJJCNsI5hSQe1XvdmYvirRMFFnO3Aw==
-----END CERTIFICATE-----
