Certificate:
    Data:
        Version: 3 (0x2)
        Serial Number: 5 (0x5)
    Signature Algorithm: sha256WithRSAEncryption
        Issuer: C=ES, ST=Cantabria, L=Santander, O=Santander Meteorology Group, CN=Ezequiel Cimadevilla Alvarez/emailAddress=ezequiel.cimadevilla@unican.es
        Validity
            Not Before: Nov 27 16:54:12 2018 GMT
            Not After : Nov 24 16:54:12 2028 GMT
        Subject: CN=esgf-f2f-test
        Subject Public Key Info:
            Public Key Algorithm: rsaEncryption
                Public-Key: (2048 bit)
                Modulus:
                    00:ee:95:3e:70:e0:9e:e8:77:61:f2:66:ca:78:1f:
                    4a:e5:f5:03:3e:e3:03:76:24:27:52:88:66:e0:08:
                    96:90:41:7b:b5:8b:c5:12:71:2c:82:da:c0:9f:6c:
                    8d:0a:16:2f:31:c1:fa:3e:3b:85:b5:2d:18:c2:9d:
                    a2:31:cb:dc:5b:33:e1:5c:de:2c:e5:b7:34:cc:50:
                    7c:1c:a9:bf:50:80:0d:5c:d6:fd:22:e2:44:91:d9:
                    3d:6e:80:90:19:54:df:03:b5:f6:f5:7a:7a:d8:73:
                    6a:90:60:97:c6:1d:26:cf:0d:9f:1b:90:12:43:7f:
                    a3:5c:90:c3:94:4b:0a:fc:7d:00:8b:f9:e5:24:53:
                    e4:fb:91:5f:4c:26:25:45:4c:ca:3a:55:29:c3:50:
                    62:d3:be:12:9c:ad:38:7b:62:36:24:a8:93:52:56:
                    e3:17:34:4d:f5:28:2c:33:f9:75:d9:00:18:84:35:
                    d5:cb:8a:9f:e9:b2:21:0a:95:80:25:55:2d:10:4f:
                    41:a4:b2:02:56:34:7f:62:57:9a:12:50:84:f0:17:
                    9c:8b:11:7c:97:01:b9:3c:2c:1b:fb:eb:d0:f1:05:
                    e5:39:4c:9f:98:6e:af:50:a6:96:fb:33:59:e0:75:
                    d0:ca:25:66:a6:4b:30:b4:b4:56:11:c7:95:f0:a4:
                    9f:2f
                Exponent: 65537 (0x10001)
        X509v3 extensions:
            X509v3 Subject Alternative Name: 
                IP Address:127.0.0.1, IP Address:172.28.128.3, IP Address:172.28.128.4, IP Address:172.28.128.5, IP Address:172.28.128.13, DNS:localhost, DNS:esgf.test.es
    Signature Algorithm: sha256WithRSAEncryption
         0f:4b:d4:cd:67:2a:43:c3:c8:46:cc:6f:02:78:34:ce:48:fd:
         f7:e7:e9:d1:be:f0:0d:53:fd:54:98:f4:23:b0:cf:22:6a:a3:
         35:1e:1d:a7:f1:91:45:d3:43:d5:fb:fe:bd:07:d8:d8:07:3a:
         b6:9e:1f:0c:04:33:1c:13:81:fe:f3:6b:5d:7b:b8:b5:28:7c:
         f1:17:45:1a:b7:e3:b9:e6:64:98:b8:14:5f:b2:0f:4e:d5:4a:
         bb:29:2b:92:08:20:9c:08:f5:39:79:d4:bb:2b:61:d9:ef:35:
         56:04:f3:58:31:3e:80:bd:4c:a1:e9:aa:33:97:0e:d2:24:de:
         5d:79:fe:28:6f:92:bf:1a:d6:8a:9f:0b:f2:50:46:12:52:ae:
         10:e0:32:b9:49:d1:ee:f3:2f:44:b9:27:4d:89:65:c2:c2:10:
         07:13:af:08:11:d4:36:83:18:24:7b:30:52:78:b1:a0:1b:6d:
         da:63:1d:c3:3b:3e:07:8e:27:e2:84:19:a4:8d:60:33:83:70:
         fb:09:16:c9:14:19:25:10:64:02:6e:97:0a:9f:c5:4a:0e:95:
         1f:ec:39:e1:dc:9b:d9:4d:74:ee:66:6c:33:56:b9:f6:c9:99:
         3a:09:42:1e:39:58:cb:34:b2:95:bd:35:ea:d6:17:b9:fb:23:
         0d:50:ca:8f
-----BEGIN CERTIFICATE-----
MIIDiTCCAnGgAwIBAgIBBTANBgkqhkiG9w0BAQsFADCBsTELMAkGA1UEBhMCRVMx
EjAQBgNVBAgMCUNhbnRhYnJpYTESMBAGA1UEBwwJU2FudGFuZGVyMSQwIgYDVQQK
DBtTYW50YW5kZXIgTWV0ZW9yb2xvZ3kgR3JvdXAxJTAjBgNVBAMMHEV6ZXF1aWVs
IENpbWFkZXZpbGxhIEFsdmFyZXoxLTArBgkqhkiG9w0BCQEWHmV6ZXF1aWVsLmNp
bWFkZXZpbGxhQHVuaWNhbi5lczAeFw0xODExMjcxNjU0MTJaFw0yODExMjQxNjU0
MTJaMBgxFjAUBgNVBAMMDWVzZ2YtZjJmLXRlc3QwggEiMA0GCSqGSIb3DQEBAQUA
A4IBDwAwggEKAoIBAQDulT5w4J7od2HyZsp4H0rl9QM+4wN2JCdSiGbgCJaQQXu1
i8UScSyC2sCfbI0KFi8xwfo+O4W1LRjCnaIxy9xbM+Fc3izltzTMUHwcqb9QgA1c
1v0i4kSR2T1ugJAZVN8Dtfb1enrYc2qQYJfGHSbPDZ8bkBJDf6NckMOUSwr8fQCL
+eUkU+T7kV9MJiVFTMo6VSnDUGLTvhKcrTh7YjYkqJNSVuMXNE31KCwz+XXZABiE
NdXLip/psiEKlYAlVS0QT0GksgJWNH9iV5oSUITwF5yLEXyXAbk8LBv769DxBeU5
TJ+Ybq9Qppb7M1ngddDKJWamSzC0tFYRx5XwpJ8vAgMBAAGjRDBCMEAGA1UdEQQ5
MDeHBH8AAAGHBKwcgAOHBKwcgASHBKwcgAWHBKwcgA2CCWxvY2FsaG9zdIIMZXNn
Zi50ZXN0LmVzMA0GCSqGSIb3DQEBCwUAA4IBAQAPS9TNZypDw8hGzG8CeDTOSP33
5+nRvvANU/1UmPQjsM8iaqM1Hh2n8ZFF00PV+/69B9jYBzq2nh8MBDMcE4H+82td
e7i1KHzxF0Uat+O55mSYuBRfsg9O1Uq7KSuSCCCcCPU5edS7K2HZ7zVWBPNYMT6A
vUyh6aozlw7SJN5def4ob5K/GtaKnwvyUEYSUq4Q4DK5SdHu8y9EuSdNiWXCwhAH
E68IEdQ2gxgkezBSeLGgG23aYx3DOz4HjifihBmkjWAzg3D7CRbJFBklEGQCbpcK
n8VKDpUf7Dnh3JvZTXTuZmwzVrn2yZk6CUIeOVjLNLKVvTXq1he5+yMNUMqP
-----END CERTIFICATE-----
